; Function Attrs: nofree norecurse nosync nounwind memory(argmem: readwrite) uwtable
define internal void @pred8x16_horizontal_add_14_c(ptr noundef captures(none) %0, ptr noundef readonly captures(none) %1, ptr noundef captures(none) %2, i64 noundef %3) #3 {
  %5 = ashr i64 %3, 1
  br label %6

.preheader:                                       ; preds = %pred4x4_horizontal_add_14_c.exit
  %invariant.gep = getelementptr inbounds nuw i8, ptr %1, i64 16
  br label %36

6:                                                ; preds = %4, %pred4x4_horizontal_add_14_c.exit
  %indvars.iv = phi i64 [ 0, %4 ], [ %indvars.iv.next, %pred4x4_horizontal_add_14_c.exit ]
  %7 = getelementptr inbounds nuw i32, ptr %1, i64 %indvars.iv
  %8 = load i32, ptr %7, align 4, !tbaa !56
  %9 = sext i32 %8 to i64
  %10 = getelementptr inbounds i8, ptr %0, i64 %9
  %.idx = shl nuw nsw i64 %indvars.iv, 6
  %11 = getelementptr inbounds nuw i8, ptr %2, i64 %.idx
  br label %12

12:                                               ; preds = %12, %6
  %.025.i = phi ptr [ %11, %6 ], [ %34, %12 ]
  %.02124.i = phi ptr [ %10, %6 ], [ %33, %12 ]
  %.02223.i = phi i32 [ 0, %6 ], [ %35, %12 ]
  %13 = getelementptr inbounds i8, ptr %.02124.i, i64 -2
  %14 = load i16, ptr %13, align 2, !tbaa !9
  %15 = load i32, ptr %.025.i, align 4, !tbaa !56
  %16 = trunc i32 %15 to i16
  %17 = add i16 %14, %16
  store i16 %17, ptr %.02124.i, align 2, !tbaa !9
  %18 = getelementptr inbounds nuw i8, ptr %.025.i, i64 4
  %19 = load i32, ptr %18, align 4, !tbaa !56
  %20 = trunc i32 %19 to i16
  %21 = add i16 %17, %20
  %22 = getelementptr inbounds nuw i8, ptr %.02124.i, i64 2
  store i16 %21, ptr %22, align 2, !tbaa !9
  %23 = getelementptr inbounds nuw i8, ptr %.025.i, i64 8
  %24 = load i32, ptr %23, align 4, !tbaa !56
  %25 = trunc i32 %24 to i16
  %26 = add i16 %21, %25
  %27 = getelementptr inbounds nuw i8, ptr %.02124.i, i64 4
  store i16 %26, ptr %27, align 2, !tbaa !9
  %28 = getelementptr inbounds nuw i8, ptr %.025.i, i64 12
  %29 = load i32, ptr %28, align 4, !tbaa !56
  %30 = trunc i32 %29 to i16
  %31 = add i16 %26, %30
  %32 = getelementptr inbounds nuw i8, ptr %.02124.i, i64 6
  store i16 %31, ptr %32, align 2, !tbaa !9
  %33 = getelementptr inbounds i16, ptr %.02124.i, i64 %5
  %34 = getelementptr inbounds nuw i8, ptr %.025.i, i64 16
  %35 = add nuw nsw i32 %.02223.i, 1
  %exitcond.not.i = icmp eq i32 %35, 4
  br i1 %exitcond.not.i, label %pred4x4_horizontal_add_14_c.exit, label %12, !llvm.loop !233

pred4x4_horizontal_add_14_c.exit:                 ; preds = %12
  tail call void @llvm.memset.p0.i64(ptr noundef nonnull align 2 dereferenceable(64) %11, i8 0, i64 64, i1 false)
  %indvars.iv.next = add nuw nsw i64 %indvars.iv, 1
  %exitcond.not = icmp eq i64 %indvars.iv.next, 4
  br i1 %exitcond.not, label %.preheader, label %6, !llvm.loop !242

36:                                               ; preds = %.preheader, %pred4x4_horizontal_add_14_c.exit19
  %indvars.iv23 = phi i64 [ 4, %.preheader ], [ %indvars.iv.next24, %pred4x4_horizontal_add_14_c.exit19 ]
  %gep = getelementptr inbounds nuw i32, ptr %invariant.gep, i64 %indvars.iv23
  %37 = load i32, ptr %gep, align 4, !tbaa !56
  %38 = sext i32 %37 to i64
  %39 = getelementptr inbounds i8, ptr %0, i64 %38
  %.idx27 = shl nuw nsw i64 %indvars.iv23, 6
  %40 = getelementptr inbounds nuw i8, ptr %2, i64 %.idx27
  br label %41

41:                                               ; preds = %41, %36
  %.025.i15 = phi ptr [ %40, %36 ], [ %63, %41 ]
  %.02124.i16 = phi ptr [ %39, %36 ], [ %62, %41 ]
  %.02223.i17 = phi i32 [ 0, %36 ], [ %64, %41 ]
  %42 = getelementptr inbounds i8, ptr %.02124.i16, i64 -2
  %43 = load i16, ptr %42, align 2, !tbaa !9
  %44 = load i32, ptr %.025.i15, align 4, !tbaa !56
  %45 = trunc i32 %44 to i16
  %46 = add i16 %43, %45
  store i16 %46, ptr %.02124.i16, align 2, !tbaa !9
  %47 = getelementptr inbounds nuw i8, ptr %.025.i15, i64 4
  %48 = load i32, ptr %47, align 4, !tbaa !56
  %49 = trunc i32 %48 to i16
  %50 = add i16 %46, %49
  %51 = getelementptr inbounds nuw i8, ptr %.02124.i16, i64 2
  store i16 %50, ptr %51, align 2, !tbaa !9
  %52 = getelementptr inbounds nuw i8, ptr %.025.i15, i64 8
  %53 = load i32, ptr %52, align 4, !tbaa !56
  %54 = trunc i32 %53 to i16
  %55 = add i16 %50, %54
  %56 = getelementptr inbounds nuw i8, ptr %.02124.i16, i64 4
  store i16 %55, ptr %56, align 2, !tbaa !9
  %57 = getelementptr inbounds nuw i8, ptr %.025.i15, i64 12
  %58 = load i32, ptr %57, align 4, !tbaa !56
  %59 = trunc i32 %58 to i16
  %60 = add i16 %55, %59
  %61 = getelementptr inbounds nuw i8, ptr %.02124.i16, i64 6
  store i16 %60, ptr %61, align 2, !tbaa !9
  %62 = getelementptr inbounds i16, ptr %.02124.i16, i64 %5
  %63 = getelementptr inbounds nuw i8, ptr %.025.i15, i64 16
  %64 = add nuw nsw i32 %.02223.i17, 1
  %exitcond.not.i18 = icmp eq i32 %64, 4
  br i1 %exitcond.not.i18, label %pred4x4_horizontal_add_14_c.exit19, label %41, !llvm.loop !233

pred4x4_horizontal_add_14_c.exit19:               ; preds = %41
  tail call void @llvm.memset.p0.i64(ptr noundef nonnull align 2 dereferenceable(64) %40, i8 0, i64 64, i1 false)
  %indvars.iv.next24 = add nuw nsw i64 %indvars.iv23, 1
  %exitcond26.not = icmp eq i64 %indvars.iv.next24, 8
  br i1 %exitcond26.not, label %65, label %36, !llvm.loop !243

65:                                               ; preds = %pred4x4_horizontal_add_14_c.exit19
  ret void
}